target datalayout = "e-m:e-p270:32:32-p271:32:32-p272:64:64-i64:64-i128:128-f80:128-n8:16:32:64-S128"
target triple = "x86_64-pc-linux-gnu"

%struct.DdNode = type { i32, i32, ptr, %union.anon, i64 }
%union.anon = type { %struct.DdChildren }
%struct.DdChildren = type { ptr, ptr }
%struct.DdManager = type { %struct.DdNode, ptr, ptr, ptr, ptr, ptr, ptr, ptr, i32, i32, double, double, double, i32, i32, i32, i32, i32, i32, ptr, ptr, %struct.DdSubtable, i32, i32, i32, i32, i32, i32, i32, double, i32, i32, i32, ptr, i64, double, i32, ptr, ptr, ptr, ptr, ptr, ptr, ptr, i32, ptr, ptr, ptr, ptr, ptr, ptr, i32, i32, i32, double, i32, i32, i32, i32, double, double, i32, i32, i32, i32, i32, i32, i32, i32, i32, ptr, ptr, i32, i32, i32, i32, i32, i32, ptr, ptr, ptr, ptr, ptr, ptr, ptr, ptr, i32, i64, i64, i64, i32, i64, i64, double, double, double, double, double, double, i32, ptr, ptr, i64 }
%struct.DdSubtable = type { ptr, i32, i32, i32, i32, i32, i32, i32, i32, i32, i32, i32 }

; Function Attrs: nounwind uwtable
define void @cuddReclaimZdd(ptr noundef %0, ptr noundef %1) #0 {
  %3 = alloca ptr, align 8
  %4 = alloca ptr, align 8
  %5 = alloca ptr, align 8
  %6 = alloca i32, align 4
  %7 = alloca ptr, align 8
  %8 = alloca i32, align 4
  store ptr %0, ptr %3, align 8, !tbaa !12
  store ptr %1, ptr %4, align 8, !tbaa !3
  call void @llvm.lifetime.start.p0(i64 8, ptr %5) #4
  call void @llvm.lifetime.start.p0(i64 4, ptr %6) #4
  call void @llvm.lifetime.start.p0(i64 8, ptr %7) #4
  %9 = load ptr, ptr %3, align 8, !tbaa !12
  %10 = getelementptr inbounds nuw %struct.DdManager, ptr %9, i32 0, i32 33
  %11 = load ptr, ptr %10, align 8, !tbaa !14
  store ptr %11, ptr %7, align 8, !tbaa !28
  call void @llvm.lifetime.start.p0(i64 4, ptr %8) #4
  store i32 1, ptr %8, align 4, !tbaa !29
  %12 = load ptr, ptr %4, align 8, !tbaa !3
  store ptr %12, ptr %5, align 8, !tbaa !3
  br label %13

13:                                               ; preds = %70, %2
  %14 = load ptr, ptr %5, align 8, !tbaa !3
  %15 = getelementptr inbounds nuw %struct.DdNode, ptr %14, i32 0, i32 1
  %16 = load i32, ptr %15, align 4, !tbaa !8
  %17 = add i32 %16, 1
  store i32 %17, ptr %15, align 4, !tbaa !8
  %18 = load ptr, ptr %5, align 8, !tbaa !3
  %19 = getelementptr inbounds nuw %struct.DdNode, ptr %18, i32 0, i32 1
  %20 = load i32, ptr %19, align 4, !tbaa !8
  %21 = icmp eq i32 %20, 1
  br i1 %21, label %22, label %62

22:                                               ; preds = %13
  %23 = load ptr, ptr %3, align 8, !tbaa !12
  %24 = getelementptr inbounds nuw %struct.DdManager, ptr %23, i32 0, i32 26
  %25 = load i32, ptr %24, align 8, !tbaa !46
  %26 = add i32 %25, -1
  store i32 %26, ptr %24, align 8, !tbaa !46
  %27 = load ptr, ptr %3, align 8, !tbaa !12
  %28 = getelementptr inbounds nuw %struct.DdManager, ptr %27, i32 0, i32 35
  %29 = load double, ptr %28, align 8, !tbaa !76
  %30 = fadd double %29, 1.000000e+00
  store double %30, ptr %28, align 8, !tbaa !76
  %31 = load ptr, ptr %3, align 8, !tbaa !12
  %32 = getelementptr inbounds nuw %struct.DdManager, ptr %31, i32 0, i32 38
  %33 = load ptr, ptr %32, align 8, !tbaa !47
  %34 = load ptr, ptr %5, align 8, !tbaa !3
  %35 = getelementptr inbounds nuw %struct.DdNode, ptr %34, i32 0, i32 0
  %36 = load i32, ptr %35, align 8, !tbaa !33
  %37 = zext i32 %36 to i64
  %38 = getelementptr inbounds nuw i32, ptr %33, i64 %37
  %39 = load i32, ptr %38, align 4, !tbaa !29
  store i32 %39, ptr %6, align 4, !tbaa !29
  %40 = load ptr, ptr %5, align 8, !tbaa !3
  %41 = getelementptr inbounds nuw %struct.DdNode, ptr %40, i32 0, i32 3
  %42 = getelementptr inbounds nuw %struct.DdChildren, ptr %41, i32 0, i32 1
  %43 = load ptr, ptr %42, align 8, !tbaa !36
  %44 = load ptr, ptr %7, align 8, !tbaa !28
  %45 = load i32, ptr %8, align 4, !tbaa !29
  %46 = add nsw i32 %45, 1
  store i32 %46, ptr %8, align 4, !tbaa !29
  %47 = sext i32 %45 to i64
  %48 = getelementptr inbounds ptr, ptr %44, i64 %47
  store ptr %43, ptr %48, align 8, !tbaa !3
  %49 = load ptr, ptr %3, align 8, !tbaa !12
  %50 = getelementptr inbounds nuw %struct.DdManager, ptr %49, i32 0, i32 20
  %51 = load ptr, ptr %50, align 8, !tbaa !48
  %52 = load i32, ptr %6, align 4, !tbaa !29
  %53 = sext i32 %52 to i64
  %54 = getelementptr inbounds %struct.DdSubtable, ptr %51, i64 %53
  %55 = getelementptr inbounds nuw %struct.DdSubtable, ptr %54, i32 0, i32 5
  %56 = load i32, ptr %55, align 8, !tbaa !38
  %57 = add i32 %56, -1
  store i32 %57, ptr %55, align 8, !tbaa !38
  %58 = load ptr, ptr %5, align 8, !tbaa !3
  %59 = getelementptr inbounds nuw %struct.DdNode, ptr %58, i32 0, i32 3
  %60 = getelementptr inbounds nuw %struct.DdChildren, ptr %59, i32 0, i32 0
  %61 = load ptr, ptr %60, align 8, !tbaa !36
  store ptr %61, ptr %5, align 8, !tbaa !3
  br label %69

62:                                               ; preds = %13
  %63 = load ptr, ptr %7, align 8, !tbaa !28
  %64 = load i32, ptr %8, align 4, !tbaa !29
  %65 = add nsw i32 %64, -1
  store i32 %65, ptr %8, align 4, !tbaa !29
  %66 = sext i32 %65 to i64
  %67 = getelementptr inbounds ptr, ptr %63, i64 %66
  %68 = load ptr, ptr %67, align 8, !tbaa !3
  store ptr %68, ptr %5, align 8, !tbaa !3
  br label %69

69:                                               ; preds = %62, %22
  br label %70

70:                                               ; preds = %69
  %71 = load i32, ptr %8, align 4, !tbaa !29
  %72 = icmp ne i32 %71, 0
  br i1 %72, label %13, label %73, !llvm.loop !77

73:                                               ; preds = %70
  %74 = load ptr, ptr %4, align 8, !tbaa !3
  %75 = getelementptr inbounds nuw %struct.DdNode, ptr %74, i32 0, i32 1
  %76 = load i32, ptr %75, align 4, !tbaa !8
  %77 = add i32 %76, -1
  store i32 %77, ptr %75, align 4, !tbaa !8
  call void @llvm.lifetime.end.p0(i64 4, ptr %8) #4
  call void @llvm.lifetime.end.p0(i64 8, ptr %7) #4
  call void @llvm.lifetime.end.p0(i64 4, ptr %6) #4
  call void @llvm.lifetime.end.p0(i64 8, ptr %5) #4
  ret void
}