; Function Attrs: nofree norecurse nosync nounwind memory(readwrite, inaccessiblemem: none) uwtable
define void @cuddReclaimZdd(ptr noundef captures(none) %0, ptr noundef captures(none) %1) local_unnamed_addr #1 {
  %3 = getelementptr inbounds nuw i8, ptr %0, i64 280
  %4 = load ptr, ptr %3, align 8, !tbaa !11
  %5 = getelementptr inbounds nuw i8, ptr %0, i64 240
  %6 = getelementptr inbounds nuw i8, ptr %0, i64 296
  %7 = getelementptr inbounds nuw i8, ptr %0, i64 320
  %8 = getelementptr inbounds nuw i8, ptr %0, i64 160
  br label %9

9:                                                ; preds = %39, %2
  %.017 = phi ptr [ %1, %2 ], [ %.118, %39 ]
  %.0 = phi i32 [ 1, %2 ], [ %.1, %39 ]
  %10 = getelementptr inbounds nuw i8, ptr %.017, i64 4
  %11 = load i32, ptr %10, align 4, !tbaa !3
  %12 = add i32 %11, 1
  store i32 %12, ptr %10, align 4, !tbaa !3
  %13 = icmp eq i32 %11, 0
  br i1 %13, label %14, label %35

14:                                               ; preds = %9
  %15 = load i32, ptr %5, align 8, !tbaa !43
  %16 = add i32 %15, -1
  store i32 %16, ptr %5, align 8, !tbaa !43
  %17 = load double, ptr %6, align 8, !tbaa !70
  %18 = fadd double %17, 1.000000e+00
  store double %18, ptr %6, align 8, !tbaa !70
  %19 = load ptr, ptr %7, align 8, !tbaa !44
  %20 = load i32, ptr %.017, align 8, !tbaa !28
  %21 = zext i32 %20 to i64
  %22 = getelementptr inbounds nuw i32, ptr %19, i64 %21
  %23 = load i32, ptr %22, align 4, !tbaa !31
  %24 = getelementptr inbounds nuw i8, ptr %.017, i64 16
  %25 = getelementptr inbounds nuw i8, ptr %.017, i64 24
  %26 = load ptr, ptr %25, align 8, !tbaa !32
  %27 = add nsw i32 %.0, 1
  %28 = sext i32 %.0 to i64
  %29 = getelementptr inbounds ptr, ptr %4, i64 %28
  store ptr %26, ptr %29, align 8, !tbaa !33
  %30 = load ptr, ptr %8, align 8, !tbaa !45
  %31 = sext i32 %23 to i64
  %32 = getelementptr inbounds %struct.DdSubtable, ptr %30, i64 %31, i32 5
  %33 = load i32, ptr %32, align 8, !tbaa !35
  %34 = add i32 %33, -1
  store i32 %34, ptr %32, align 8, !tbaa !35
  br label %39

35:                                               ; preds = %9
  %36 = add nsw i32 %.0, -1
  %37 = sext i32 %36 to i64
  %38 = getelementptr inbounds ptr, ptr %4, i64 %37
  br label %39

39:                                               ; preds = %14, %35
  %.118.in = phi ptr [ %24, %14 ], [ %38, %35 ]
  %.1 = phi i32 [ %27, %14 ], [ %36, %35 ]
  %.118 = load ptr, ptr %.118.in, align 8, !tbaa !32
  %.not = icmp eq i32 %.1, 0
  br i1 %.not, label %40, label %9, !llvm.loop !71

40:                                               ; preds = %39
  %41 = getelementptr inbounds nuw i8, ptr %1, i64 4
  %42 = load i32, ptr %41, align 4, !tbaa !3
  %43 = add i32 %42, -1
  store i32 %43, ptr %41, align 4, !tbaa !3
  ret void
}